target datalayout = "e-m:e-p270:32:32-p271:32:32-p272:64:64-i64:64-i128:128-f80:128-n8:16:32:64-S128"
target triple = "x86_64-pc-linux-gnu"

%struct.H5C_t = type { i8, ptr, ptr, i32, ptr, i64, i64, ptr, i8, ptr, i8, i8, i32, i64, [6 x i32], [6 x i64], i64, [6 x i64], i64, [6 x i64], [65536 x ptr], i32, i64, ptr, ptr, i64, ptr, ptr, i8, i8, i32, i64, [6 x i32], [6 x i64], ptr, i32, ptr, i8, i32, i32, i64, ptr, ptr, i32, i64, ptr, ptr, i32, i64, ptr, ptr, i8, i8, i64, i8, i8, i8, i8, i8, i8, %struct.H5C_auto_size_ctl_t, i32, [10 x i8], [11 x i32], i32, i32, i32, [10 x %struct.H5C_cache_entry_t], i64, i64, %struct.H5C_cache_image_ctl_t, i8, i8, i8, i8, i64, i64, i64, i64, i64, i64, i64, i32, ptr, ptr, i8, i8, [32 x i8] }
%struct.H5C_auto_size_ctl_t = type { i32, ptr, i8, i64, double, i64, i64, i64, i32, double, double, i8, i64, i32, double, double, i32, double, double, i8, i64, i32, i8, double }
%struct.H5C_cache_entry_t = type { ptr, i64, i64, ptr, i8, ptr, i8, i8, i8, i8, i32, i8, i8, i8, i8, i8, i32, ptr, i32, i32, i32, i32, i32, i8, i8, ptr, ptr, ptr, ptr, ptr, ptr, i8, i32, i8, i64, ptr, i64, i64, i32, i8, i32, i32, i8, ptr, ptr, ptr }
%struct.H5C_cache_image_ctl_t = type { i32, i8, i8, i32, i32 }

@stdout = external global ptr, align 8
@.str.3 = private unnamed_addr constant [52 x i8] c"%sAuto cache resize -- no change. (hit rate = %lf)\0A\00", align 1
@.str.4 = private unnamed_addr constant [67 x i8] c"%sAuto cache resize -- hit rate (%lf) out of bounds low (%6.5lf).\0A\00", align 1
@.str.5 = private unnamed_addr constant [53 x i8] c"%scache size increased from (%zu/%zu) to (%zu/%zu).\0A\00", align 1
@.str.6 = private unnamed_addr constant [51 x i8] c"%sflash cache resize(%d) -- size threshold = %zu.\0A\00", align 1
@.str.7 = private unnamed_addr constant [54 x i8] c"%s cache size increased from (%zu/%zu) to (%zu/%zu).\0A\00", align 1
@.str.8 = private unnamed_addr constant [48 x i8] c"%sAuto cache resize -- decrease off.  HR = %lf\0A\00", align 1
@.str.9 = private unnamed_addr constant [66 x i8] c"%sAuto cache resize -- decrease by threshold.  HR = %lf > %6.5lf\0A\00", align 1
@.str.10 = private unnamed_addr constant [32 x i8] c"%sout of bounds high (%6.5lf).\0A\00", align 1
@.str.11 = private unnamed_addr constant [54 x i8] c"%sAuto cache resize -- decrease by ageout.  HR = %lf\0A\00", align 1
@.str.12 = private unnamed_addr constant [77 x i8] c"%sAuto cache resize -- decrease by ageout with threshold. HR = %lf > %6.5lf\0A\00", align 1
@.str.13 = private unnamed_addr constant [60 x i8] c"%sAuto cache resize -- decrease by unknown mode.  HR = %lf\0A\00", align 1
@.str.14 = private unnamed_addr constant [57 x i8] c"%s    cache size decreased from (%zu/%zu) to (%zu/%zu).\0A\00", align 1
@.str.15 = private unnamed_addr constant [51 x i8] c"%s    cache already at maximum size so no change.\0A\00", align 1
@.str.16 = private unnamed_addr constant [58 x i8] c"%sAuto cache resize -- hit rate (%lf) -- can't decrease.\0A\00", align 1
@.str.17 = private unnamed_addr constant [38 x i8] c"%s    cache already at minimum size.\0A\00", align 1
@.str.18 = private unnamed_addr constant [54 x i8] c"%sAuto cache resize -- increase disabled -- HR = %lf.\00", align 1
@.str.19 = private unnamed_addr constant [55 x i8] c"%sAuto cache resize -- decrease disabled -- HR = %lf.\0A\00", align 1
@.str.20 = private unnamed_addr constant [46 x i8] c"%s    cache not full so no increase in size.\0A\00", align 1
@.str.21 = private unnamed_addr constant [45 x i8] c"%sAuto cache resize -- unknown status code.\0A\00", align 1

; Function Attrs: nounwind uwtable
define void @H5C_def_auto_resize_rpt_fcn(ptr noundef %0, i32 noundef %1, double noundef %2, i32 noundef %3, i64 noundef %4, i64 noundef %5, i64 noundef %6, i64 noundef %7) #0 {
  %9 = alloca ptr, align 8
  %10 = alloca i32, align 4
  %11 = alloca double, align 8
  %12 = alloca i32, align 4
  %13 = alloca i64, align 8
  %14 = alloca i64, align 8
  %15 = alloca i64, align 8
  %16 = alloca i64, align 8
  store ptr %0, ptr %9, align 8, !tbaa !3
  store i32 %1, ptr %10, align 4, !tbaa !10
  store double %2, ptr %11, align 8, !tbaa !19
  store i32 %3, ptr %12, align 4, !tbaa !10
  store i64 %4, ptr %13, align 8, !tbaa !16
  store i64 %5, ptr %14, align 8, !tbaa !16
  store i64 %6, ptr %15, align 8, !tbaa !16
  store i64 %7, ptr %16, align 8, !tbaa !16
  %17 = load i32, ptr %12, align 4, !tbaa !10
  switch i32 %17, label %192 [
    i32 0, label %18
    i32 1, label %25
    i32 2, label %45
    i32 3, label %67
    i32 4, label %134
    i32 5, label %150
    i32 6, label %162
    i32 7, label %169
    i32 8, label %176
  ]

18:                                               ; preds = %8
  %19 = load ptr, ptr @stdout, align 8, !tbaa !21
  %20 = load ptr, ptr %9, align 8, !tbaa !3
  %21 = getelementptr inbounds nuw %struct.H5C_t, ptr %20, i32 0, i32 87
  %22 = getelementptr inbounds [32 x i8], ptr %21, i64 0, i64 0
  %23 = load double, ptr %11, align 8, !tbaa !19
  %24 = call i32 (ptr, ptr, ...) @fprintf(ptr noundef %19, ptr noundef @.str.3, ptr noundef %22, double noundef %23) #6
  br label %198

25:                                               ; preds = %8
  %26 = load ptr, ptr @stdout, align 8, !tbaa !21
  %27 = load ptr, ptr %9, align 8, !tbaa !3
  %28 = getelementptr inbounds nuw %struct.H5C_t, ptr %27, i32 0, i32 87
  %29 = getelementptr inbounds [32 x i8], ptr %28, i64 0, i64 0
  %30 = load double, ptr %11, align 8, !tbaa !19
  %31 = load ptr, ptr %9, align 8, !tbaa !3
  %32 = getelementptr inbounds nuw %struct.H5C_t, ptr %31, i32 0, i32 60
  %33 = getelementptr inbounds nuw %struct.H5C_auto_size_ctl_t, ptr %32, i32 0, i32 9
  %34 = load double, ptr %33, align 8, !tbaa !23
  %35 = call i32 (ptr, ptr, ...) @fprintf(ptr noundef %26, ptr noundef @.str.4, ptr noundef %29, double noundef %30, double noundef %34) #6
  %36 = load ptr, ptr @stdout, align 8, !tbaa !21
  %37 = load ptr, ptr %9, align 8, !tbaa !3
  %38 = getelementptr inbounds nuw %struct.H5C_t, ptr %37, i32 0, i32 87
  %39 = getelementptr inbounds [32 x i8], ptr %38, i64 0, i64 0
  %40 = load i64, ptr %13, align 8, !tbaa !16
  %41 = load i64, ptr %15, align 8, !tbaa !16
  %42 = load i64, ptr %14, align 8, !tbaa !16
  %43 = load i64, ptr %16, align 8, !tbaa !16
  %44 = call i32 (ptr, ptr, ...) @fprintf(ptr noundef %36, ptr noundef @.str.5, ptr noundef %39, i64 noundef %40, i64 noundef %41, i64 noundef %42, i64 noundef %43) #6
  br label %198

45:                                               ; preds = %8
  %46 = load ptr, ptr @stdout, align 8, !tbaa !21
  %47 = load ptr, ptr %9, align 8, !tbaa !3
  %48 = getelementptr inbounds nuw %struct.H5C_t, ptr %47, i32 0, i32 87
  %49 = getelementptr inbounds [32 x i8], ptr %48, i64 0, i64 0
  %50 = load ptr, ptr %9, align 8, !tbaa !3
  %51 = getelementptr inbounds nuw %struct.H5C_t, ptr %50, i32 0, i32 60
  %52 = getelementptr inbounds nuw %struct.H5C_auto_size_ctl_t, ptr %51, i32 0, i32 13
  %53 = load i32, ptr %52, align 8, !tbaa !33
  %54 = load ptr, ptr %9, align 8, !tbaa !3
  %55 = getelementptr inbounds nuw %struct.H5C_t, ptr %54, i32 0, i32 53
  %56 = load i64, ptr %55, align 8, !tbaa !34
  %57 = call i32 (ptr, ptr, ...) @fprintf(ptr noundef %46, ptr noundef @.str.6, ptr noundef %49, i32 noundef %53, i64 noundef %56) #6
  %58 = load ptr, ptr @stdout, align 8, !tbaa !21
  %59 = load ptr, ptr %9, align 8, !tbaa !3
  %60 = getelementptr inbounds nuw %struct.H5C_t, ptr %59, i32 0, i32 87
  %61 = getelementptr inbounds [32 x i8], ptr %60, i64 0, i64 0
  %62 = load i64, ptr %13, align 8, !tbaa !16
  %63 = load i64, ptr %15, align 8, !tbaa !16
  %64 = load i64, ptr %14, align 8, !tbaa !16
  %65 = load i64, ptr %16, align 8, !tbaa !16
  %66 = call i32 (ptr, ptr, ...) @fprintf(ptr noundef %58, ptr noundef @.str.7, ptr noundef %61, i64 noundef %62, i64 noundef %63, i64 noundef %64, i64 noundef %65) #6
  br label %198

67:                                               ; preds = %8
  %68 = load ptr, ptr %9, align 8, !tbaa !3
  %69 = getelementptr inbounds nuw %struct.H5C_t, ptr %68, i32 0, i32 60
  %70 = getelementptr inbounds nuw %struct.H5C_auto_size_ctl_t, ptr %69, i32 0, i32 16
  %71 = load i32, ptr %70, align 8, !tbaa !35
  switch i32 %71, label %117 [
    i32 0, label %72
    i32 1, label %79
    i32 2, label %99
    i32 3, label %106
  ]

72:                                               ; preds = %67
  %73 = load ptr, ptr @stdout, align 8, !tbaa !21
  %74 = load ptr, ptr %9, align 8, !tbaa !3
  %75 = getelementptr inbounds nuw %struct.H5C_t, ptr %74, i32 0, i32 87
  %76 = getelementptr inbounds [32 x i8], ptr %75, i64 0, i64 0
  %77 = load double, ptr %11, align 8, !tbaa !19
  %78 = call i32 (ptr, ptr, ...) @fprintf(ptr noundef %73, ptr noundef @.str.8, ptr noundef %76, double noundef %77) #6
  br label %124

79:                                               ; preds = %67
  %80 = load ptr, ptr @stdout, align 8, !tbaa !21
  %81 = load ptr, ptr %9, align 8, !tbaa !3
  %82 = getelementptr inbounds nuw %struct.H5C_t, ptr %81, i32 0, i32 87
  %83 = getelementptr inbounds [32 x i8], ptr %82, i64 0, i64 0
  %84 = load double, ptr %11, align 8, !tbaa !19
  %85 = load ptr, ptr %9, align 8, !tbaa !3
  %86 = getelementptr inbounds nuw %struct.H5C_t, ptr %85, i32 0, i32 60
  %87 = getelementptr inbounds nuw %struct.H5C_auto_size_ctl_t, ptr %86, i32 0, i32 17
  %88 = load double, ptr %87, align 8, !tbaa !36
  %89 = call i32 (ptr, ptr, ...) @fprintf(ptr noundef %80, ptr noundef @.str.9, ptr noundef %83, double noundef %84, double noundef %88) #6
  %90 = load ptr, ptr @stdout, align 8, !tbaa !21
  %91 = load ptr, ptr %9, align 8, !tbaa !3
  %92 = getelementptr inbounds nuw %struct.H5C_t, ptr %91, i32 0, i32 87
  %93 = getelementptr inbounds [32 x i8], ptr %92, i64 0, i64 0
  %94 = load ptr, ptr %9, align 8, !tbaa !3
  %95 = getelementptr inbounds nuw %struct.H5C_t, ptr %94, i32 0, i32 60
  %96 = getelementptr inbounds nuw %struct.H5C_auto_size_ctl_t, ptr %95, i32 0, i32 17
  %97 = load double, ptr %96, align 8, !tbaa !36
  %98 = call i32 (ptr, ptr, ...) @fprintf(ptr noundef %90, ptr noundef @.str.10, ptr noundef %93, double noundef %97) #6
  br label %124

99:                                               ; preds = %67
  %100 = load ptr, ptr @stdout, align 8, !tbaa !21
  %101 = load ptr, ptr %9, align 8, !tbaa !3
  %102 = getelementptr inbounds nuw %struct.H5C_t, ptr %101, i32 0, i32 87
  %103 = getelementptr inbounds [32 x i8], ptr %102, i64 0, i64 0
  %104 = load double, ptr %11, align 8, !tbaa !19
  %105 = call i32 (ptr, ptr, ...) @fprintf(ptr noundef %100, ptr noundef @.str.11, ptr noundef %103, double noundef %104) #6
  br label %124

106:                                              ; preds = %67
  %107 = load ptr, ptr @stdout, align 8, !tbaa !21
  %108 = load ptr, ptr %9, align 8, !tbaa !3
  %109 = getelementptr inbounds nuw %struct.H5C_t, ptr %108, i32 0, i32 87
  %110 = getelementptr inbounds [32 x i8], ptr %109, i64 0, i64 0
  %111 = load double, ptr %11, align 8, !tbaa !19
  %112 = load ptr, ptr %9, align 8, !tbaa !3
  %113 = getelementptr inbounds nuw %struct.H5C_t, ptr %112, i32 0, i32 60
  %114 = getelementptr inbounds nuw %struct.H5C_auto_size_ctl_t, ptr %113, i32 0, i32 17
  %115 = load double, ptr %114, align 8, !tbaa !36
  %116 = call i32 (ptr, ptr, ...) @fprintf(ptr noundef %107, ptr noundef @.str.12, ptr noundef %110, double noundef %111, double noundef %115) #6
  br label %124

117:                                              ; preds = %67
  %118 = load ptr, ptr @stdout, align 8, !tbaa !21
  %119 = load ptr, ptr %9, align 8, !tbaa !3
  %120 = getelementptr inbounds nuw %struct.H5C_t, ptr %119, i32 0, i32 87
  %121 = getelementptr inbounds [32 x i8], ptr %120, i64 0, i64 0
  %122 = load double, ptr %11, align 8, !tbaa !19
  %123 = call i32 (ptr, ptr, ...) @fprintf(ptr noundef %118, ptr noundef @.str.13, ptr noundef %121, double noundef %122) #6
  br label %124

124:                                              ; preds = %117, %106, %99, %79, %72
  %125 = load ptr, ptr @stdout, align 8, !tbaa !21
  %126 = load ptr, ptr %9, align 8, !tbaa !3
  %127 = getelementptr inbounds nuw %struct.H5C_t, ptr %126, i32 0, i32 87
  %128 = getelementptr inbounds [32 x i8], ptr %127, i64 0, i64 0
  %129 = load i64, ptr %13, align 8, !tbaa !16
  %130 = load i64, ptr %15, align 8, !tbaa !16
  %131 = load i64, ptr %14, align 8, !tbaa !16
  %132 = load i64, ptr %16, align 8, !tbaa !16
  %133 = call i32 (ptr, ptr, ...) @fprintf(ptr noundef %125, ptr noundef @.str.14, ptr noundef %128, i64 noundef %129, i64 noundef %130, i64 noundef %131, i64 noundef %132) #6
  br label %198

134:                                              ; preds = %8
  %135 = load ptr, ptr @stdout, align 8, !tbaa !21
  %136 = load ptr, ptr %9, align 8, !tbaa !3
  %137 = getelementptr inbounds nuw %struct.H5C_t, ptr %136, i32 0, i32 87
  %138 = getelementptr inbounds [32 x i8], ptr %137, i64 0, i64 0
  %139 = load double, ptr %11, align 8, !tbaa !19
  %140 = load ptr, ptr %9, align 8, !tbaa !3
  %141 = getelementptr inbounds nuw %struct.H5C_t, ptr %140, i32 0, i32 60
  %142 = getelementptr inbounds nuw %struct.H5C_auto_size_ctl_t, ptr %141, i32 0, i32 9
  %143 = load double, ptr %142, align 8, !tbaa !23
  %144 = call i32 (ptr, ptr, ...) @fprintf(ptr noundef %135, ptr noundef @.str.4, ptr noundef %138, double noundef %139, double noundef %143) #6
  %145 = load ptr, ptr @stdout, align 8, !tbaa !21
  %146 = load ptr, ptr %9, align 8, !tbaa !3
  %147 = getelementptr inbounds nuw %struct.H5C_t, ptr %146, i32 0, i32 87
  %148 = getelementptr inbounds [32 x i8], ptr %147, i64 0, i64 0
  %149 = call i32 (ptr, ptr, ...) @fprintf(ptr noundef %145, ptr noundef @.str.15, ptr noundef %148) #6
  br label %198

150:                                              ; preds = %8
  %151 = load ptr, ptr @stdout, align 8, !tbaa !21
  %152 = load ptr, ptr %9, align 8, !tbaa !3
  %153 = getelementptr inbounds nuw %struct.H5C_t, ptr %152, i32 0, i32 87
  %154 = getelementptr inbounds [32 x i8], ptr %153, i64 0, i64 0
  %155 = load double, ptr %11, align 8, !tbaa !19
  %156 = call i32 (ptr, ptr, ...) @fprintf(ptr noundef %151, ptr noundef @.str.16, ptr noundef %154, double noundef %155) #6
  %157 = load ptr, ptr @stdout, align 8, !tbaa !21
  %158 = load ptr, ptr %9, align 8, !tbaa !3
  %159 = getelementptr inbounds nuw %struct.H5C_t, ptr %158, i32 0, i32 87
  %160 = getelementptr inbounds [32 x i8], ptr %159, i64 0, i64 0
  %161 = call i32 (ptr, ptr, ...) @fprintf(ptr noundef %157, ptr noundef @.str.17, ptr noundef %160) #6
  br label %198

162:                                              ; preds = %8
  %163 = load ptr, ptr @stdout, align 8, !tbaa !21
  %164 = load ptr, ptr %9, align 8, !tbaa !3
  %165 = getelementptr inbounds nuw %struct.H5C_t, ptr %164, i32 0, i32 87
  %166 = getelementptr inbounds [32 x i8], ptr %165, i64 0, i64 0
  %167 = load double, ptr %11, align 8, !tbaa !19
  %168 = call i32 (ptr, ptr, ...) @fprintf(ptr noundef %163, ptr noundef @.str.18, ptr noundef %166, double noundef %167) #6
  br label %198

169:                                              ; preds = %8
  %170 = load ptr, ptr @stdout, align 8, !tbaa !21
  %171 = load ptr, ptr %9, align 8, !tbaa !3
  %172 = getelementptr inbounds nuw %struct.H5C_t, ptr %171, i32 0, i32 87
  %173 = getelementptr inbounds [32 x i8], ptr %172, i64 0, i64 0
  %174 = load double, ptr %11, align 8, !tbaa !19
  %175 = call i32 (ptr, ptr, ...) @fprintf(ptr noundef %170, ptr noundef @.str.19, ptr noundef %173, double noundef %174) #6
  br label %198

176:                                              ; preds = %8
  %177 = load ptr, ptr @stdout, align 8, !tbaa !21
  %178 = load ptr, ptr %9, align 8, !tbaa !3
  %179 = getelementptr inbounds nuw %struct.H5C_t, ptr %178, i32 0, i32 87
  %180 = getelementptr inbounds [32 x i8], ptr %179, i64 0, i64 0
  %181 = load double, ptr %11, align 8, !tbaa !19
  %182 = load ptr, ptr %9, align 8, !tbaa !3
  %183 = getelementptr inbounds nuw %struct.H5C_t, ptr %182, i32 0, i32 60
  %184 = getelementptr inbounds nuw %struct.H5C_auto_size_ctl_t, ptr %183, i32 0, i32 9
  %185 = load double, ptr %184, align 8, !tbaa !23
  %186 = call i32 (ptr, ptr, ...) @fprintf(ptr noundef %177, ptr noundef @.str.4, ptr noundef %180, double noundef %181, double noundef %185) #6
  %187 = load ptr, ptr @stdout, align 8, !tbaa !21
  %188 = load ptr, ptr %9, align 8, !tbaa !3
  %189 = getelementptr inbounds nuw %struct.H5C_t, ptr %188, i32 0, i32 87
  %190 = getelementptr inbounds [32 x i8], ptr %189, i64 0, i64 0
  %191 = call i32 (ptr, ptr, ...) @fprintf(ptr noundef %187, ptr noundef @.str.20, ptr noundef %190) #6
  br label %198

192:                                              ; preds = %8
  %193 = load ptr, ptr @stdout, align 8, !tbaa !21
  %194 = load ptr, ptr %9, align 8, !tbaa !3
  %195 = getelementptr inbounds nuw %struct.H5C_t, ptr %194, i32 0, i32 87
  %196 = getelementptr inbounds [32 x i8], ptr %195, i64 0, i64 0
  %197 = call i32 (ptr, ptr, ...) @fprintf(ptr noundef %193, ptr noundef @.str.21, ptr noundef %196) #6
  br label %198

198:                                              ; preds = %192, %176, %169, %162, %150, %134, %124, %45, %25, %18
  ret void
}