; Function Attrs: nofree nounwind uwtable
define void @H5C_def_auto_resize_rpt_fcn(ptr noundef %0, i32 noundef %1, double noundef %2, i32 noundef %3, i64 noundef %4, i64 noundef %5, i64 noundef %6, i64 noundef %7) local_unnamed_addr #5 {
  switch i32 %3, label %87 [
    i32 0, label %9
    i32 1, label %13
    i32 2, label %21
    i32 3, label %31
    i32 4, label %57
    i32 5, label %65
    i32 6, label %71
    i32 7, label %75
    i32 8, label %79
  ]

9:                                                ; preds = %8
  %10 = load ptr, ptr @stdout, align 8, !tbaa !14
  %11 = getelementptr inbounds nuw i8, ptr %0, i64 527722
  %12 = tail call i32 (ptr, ptr, ...) @fprintf(ptr noundef %10, ptr noundef nonnull @.str.3, ptr noundef nonnull %11, double noundef %2) #8
  br label %91

13:                                               ; preds = %8
  %14 = load ptr, ptr @stdout, align 8, !tbaa !14
  %15 = getelementptr inbounds nuw i8, ptr %0, i64 527722
  %16 = getelementptr inbounds nuw i8, ptr %0, i64 524936
  %17 = load double, ptr %16, align 8, !tbaa !17
  %18 = tail call i32 (ptr, ptr, ...) @fprintf(ptr noundef %14, ptr noundef nonnull @.str.4, ptr noundef nonnull %15, double noundef %2, double noundef %17) #8
  %19 = load ptr, ptr @stdout, align 8, !tbaa !14
  %20 = tail call i32 (ptr, ptr, ...) @fprintf(ptr noundef %19, ptr noundef nonnull @.str.5, ptr noundef nonnull %15, i64 noundef %4, i64 noundef %6, i64 noundef %5, i64 noundef %7) #8
  br label %91

21:                                               ; preds = %8
  %22 = load ptr, ptr @stdout, align 8, !tbaa !14
  %23 = getelementptr inbounds nuw i8, ptr %0, i64 527722
  %24 = getelementptr inbounds nuw i8, ptr %0, i64 524968
  %25 = load i32, ptr %24, align 8, !tbaa !29
  %26 = getelementptr inbounds nuw i8, ptr %0, i64 524848
  %27 = load i64, ptr %26, align 8, !tbaa !30
  %28 = tail call i32 (ptr, ptr, ...) @fprintf(ptr noundef %22, ptr noundef nonnull @.str.6, ptr noundef nonnull %23, i32 noundef %25, i64 noundef %27) #8
  %29 = load ptr, ptr @stdout, align 8, !tbaa !14
  %30 = tail call i32 (ptr, ptr, ...) @fprintf(ptr noundef %29, ptr noundef nonnull @.str.7, ptr noundef nonnull %23, i64 noundef %4, i64 noundef %6, i64 noundef %5, i64 noundef %7) #8
  br label %91

31:                                               ; preds = %8
  %32 = getelementptr inbounds nuw i8, ptr %0, i64 524992
  %33 = load i32, ptr %32, align 8, !tbaa !31
  %34 = load ptr, ptr @stdout, align 8, !tbaa !14
  %35 = getelementptr inbounds nuw i8, ptr %0, i64 527722
  switch i32 %33, label %51 [
    i32 0, label %36
    i32 1, label %38
    i32 2, label %45
    i32 3, label %47
  ]

36:                                               ; preds = %31
  %37 = tail call i32 (ptr, ptr, ...) @fprintf(ptr noundef %34, ptr noundef nonnull @.str.8, ptr noundef nonnull %35, double noundef %2) #8
  br label %53

38:                                               ; preds = %31
  %39 = getelementptr inbounds nuw i8, ptr %0, i64 525000
  %40 = load double, ptr %39, align 8, !tbaa !32
  %41 = tail call i32 (ptr, ptr, ...) @fprintf(ptr noundef %34, ptr noundef nonnull @.str.9, ptr noundef nonnull %35, double noundef %2, double noundef %40) #8
  %42 = load ptr, ptr @stdout, align 8, !tbaa !14
  %43 = load double, ptr %39, align 8, !tbaa !32
  %44 = tail call i32 (ptr, ptr, ...) @fprintf(ptr noundef %42, ptr noundef nonnull @.str.10, ptr noundef nonnull %35, double noundef %43) #8
  br label %53

45:                                               ; preds = %31
  %46 = tail call i32 (ptr, ptr, ...) @fprintf(ptr noundef %34, ptr noundef nonnull @.str.11, ptr noundef nonnull %35, double noundef %2) #8
  br label %53

47:                                               ; preds = %31
  %48 = getelementptr inbounds nuw i8, ptr %0, i64 525000
  %49 = load double, ptr %48, align 8, !tbaa !32
  %50 = tail call i32 (ptr, ptr, ...) @fprintf(ptr noundef %34, ptr noundef nonnull @.str.12, ptr noundef nonnull %35, double noundef %2, double noundef %49) #8
  br label %53

51:                                               ; preds = %31
  %52 = tail call i32 (ptr, ptr, ...) @fprintf(ptr noundef %34, ptr noundef nonnull @.str.13, ptr noundef nonnull %35, double noundef %2) #8
  br label %53

53:                                               ; preds = %51, %47, %45, %38, %36
  %54 = load ptr, ptr @stdout, align 8, !tbaa !14
  %55 = getelementptr inbounds nuw i8, ptr %0, i64 527722
  %56 = tail call i32 (ptr, ptr, ...) @fprintf(ptr noundef %54, ptr noundef nonnull @.str.14, ptr noundef nonnull %55, i64 noundef %4, i64 noundef %6, i64 noundef %5, i64 noundef %7) #8
  br label %91

57:                                               ; preds = %8
  %58 = load ptr, ptr @stdout, align 8, !tbaa !14
  %59 = getelementptr inbounds nuw i8, ptr %0, i64 527722
  %60 = getelementptr inbounds nuw i8, ptr %0, i64 524936
  %61 = load double, ptr %60, align 8, !tbaa !17
  %62 = tail call i32 (ptr, ptr, ...) @fprintf(ptr noundef %58, ptr noundef nonnull @.str.4, ptr noundef nonnull %59, double noundef %2, double noundef %61) #8
  %63 = load ptr, ptr @stdout, align 8, !tbaa !14
  %64 = tail call i32 (ptr, ptr, ...) @fprintf(ptr noundef %63, ptr noundef nonnull @.str.15, ptr noundef nonnull %59) #8
  br label %91

65:                                               ; preds = %8
  %66 = load ptr, ptr @stdout, align 8, !tbaa !14
  %67 = getelementptr inbounds nuw i8, ptr %0, i64 527722
  %68 = tail call i32 (ptr, ptr, ...) @fprintf(ptr noundef %66, ptr noundef nonnull @.str.16, ptr noundef nonnull %67, double noundef %2) #8
  %69 = load ptr, ptr @stdout, align 8, !tbaa !14
  %70 = tail call i32 (ptr, ptr, ...) @fprintf(ptr noundef %69, ptr noundef nonnull @.str.17, ptr noundef nonnull %67) #8
  br label %91

71:                                               ; preds = %8
  %72 = load ptr, ptr @stdout, align 8, !tbaa !14
  %73 = getelementptr inbounds nuw i8, ptr %0, i64 527722
  %74 = tail call i32 (ptr, ptr, ...) @fprintf(ptr noundef %72, ptr noundef nonnull @.str.18, ptr noundef nonnull %73, double noundef %2) #8
  br label %91

75:                                               ; preds = %8
  %76 = load ptr, ptr @stdout, align 8, !tbaa !14
  %77 = getelementptr inbounds nuw i8, ptr %0, i64 527722
  %78 = tail call i32 (ptr, ptr, ...) @fprintf(ptr noundef %76, ptr noundef nonnull @.str.19, ptr noundef nonnull %77, double noundef %2) #8
  br label %91

79:                                               ; preds = %8
  %80 = load ptr, ptr @stdout, align 8, !tbaa !14
  %81 = getelementptr inbounds nuw i8, ptr %0, i64 527722
  %82 = getelementptr inbounds nuw i8, ptr %0, i64 524936
  %83 = load double, ptr %82, align 8, !tbaa !17
  %84 = tail call i32 (ptr, ptr, ...) @fprintf(ptr noundef %80, ptr noundef nonnull @.str.4, ptr noundef nonnull %81, double noundef %2, double noundef %83) #8
  %85 = load ptr, ptr @stdout, align 8, !tbaa !14
  %86 = tail call i32 (ptr, ptr, ...) @fprintf(ptr noundef %85, ptr noundef nonnull @.str.20, ptr noundef nonnull %81) #8
  br label %91

87:                                               ; preds = %8
  %88 = load ptr, ptr @stdout, align 8, !tbaa !14
  %89 = getelementptr inbounds nuw i8, ptr %0, i64 527722
  %90 = tail call i32 (ptr, ptr, ...) @fprintf(ptr noundef %88, ptr noundef nonnull @.str.21, ptr noundef nonnull %89) #8
  br label %91

91:                                               ; preds = %87, %79, %75, %71, %65, %57, %53, %21, %13, %9
  ret void
}